; ModuleID = '17/995.c'
source_filename = "17/995.c"
target datalayout = "e-m:e-p270:32:32-p271:32:32-p272:64:64-i64:64-f80:128-n8:16:32:64-S128"
target triple = "x86_64-pc-linux-gnu"

@.str = private unnamed_addr constant [4 x i8] c"%d\0A\00", align 1

; Function Attrs: noinline nounwind uwtable
define dso_local i32 @main() #0 {
  %1 = alloca i32, align 4
  %2 = alloca i32, align 4
  %3 = alloca i32, align 4
  %4 = alloca i32, align 4
  %5 = alloca i32, align 4
  %6 = alloca i32, align 4
  %7 = alloca [200 x i8], align 16
  %8 = alloca [200 x i8], align 16
  %9 = alloca [200 x i8*], align 16
  store i32 0, i32* %1, align 4
  %10 = bitcast [200 x i8]* %8 to i8*
  call void @llvm.memset.p0i8.i64(i8* align 16 %10, i8 0, i64 200, i1 false)
  %11 = bitcast i8* %10 to <{ i8, [199 x i8] }>*
  %12 = getelementptr inbounds <{ i8, [199 x i8] }>, <{ i8, [199 x i8] }>* %11, i32 0, i32 0
  store i8 48, i8* %12, align 16
  %13 = call i32 (i8*, ...) @__isoc99_scanf(i8* getelementptr inbounds ([4 x i8], [4 x i8]* @.str, i64 0, i64 0), i32* %5)
  store i32 0, i32* %4, align 4
  br label %14

14:                                               ; preds = %116, %0
  %15 = load i32, i32* %4, align 4
  %16 = load i32, i32* %5, align 4
  %17 = icmp slt i32 %15, %16
  br i1 %17, label %18, label %119

18:                                               ; preds = %14
  %19 = getelementptr inbounds [200 x i8], [200 x i8]* %7, i64 0, i64 0
  %20 = call i32 (i8*, ...) bitcast (i32 (...)* @gets to i32 (i8*, ...)*)(i8* %19)
  %21 = getelementptr inbounds [200 x i8], [200 x i8]* %7, i64 0, i64 0
  %22 = call i64 @strlen(i8* %21) #4
  %23 = trunc i64 %22 to i32
  store i32 %23, i32* %6, align 4
  store i32 0, i32* %2, align 4
  br label %24

24:                                               ; preds = %56, %18
  %25 = load i32, i32* %2, align 4
  %26 = load i32, i32* %6, align 4
  %27 = icmp slt i32 %25, %26
  br i1 %27, label %28, label %59

28:                                               ; preds = %24
  %29 = load i32, i32* %2, align 4
  %30 = sext i32 %29 to i64
  %31 = getelementptr inbounds [200 x i8], [200 x i8]* %7, i64 0, i64 %30
  %32 = load i8, i8* %31, align 1
  %33 = sext i8 %32 to i32
  %34 = icmp eq i32 %33, 40
  br i1 %34, label %35, label %39

35:                                               ; preds = %28
  %36 = load i32, i32* %2, align 4
  %37 = sext i32 %36 to i64
  %38 = getelementptr inbounds [200 x i8], [200 x i8]* %8, i64 0, i64 %37
  store i8 36, i8* %38, align 1
  br label %55

39:                                               ; preds = %28
  %40 = load i32, i32* %2, align 4
  %41 = sext i32 %40 to i64
  %42 = getelementptr inbounds [200 x i8], [200 x i8]* %7, i64 0, i64 %41
  %43 = load i8, i8* %42, align 1
  %44 = sext i8 %43 to i32
  %45 = icmp eq i32 %44, 41
  br i1 %45, label %46, label %50

46:                                               ; preds = %39
  %47 = load i32, i32* %2, align 4
  %48 = sext i32 %47 to i64
  %49 = getelementptr inbounds [200 x i8], [200 x i8]* %8, i64 0, i64 %48
  store i8 63, i8* %49, align 1
  br label %54

50:                                               ; preds = %39
  %51 = load i32, i32* %2, align 4
  %52 = sext i32 %51 to i64
  %53 = getelementptr inbounds [200 x i8], [200 x i8]* %8, i64 0, i64 %52
  store i8 32, i8* %53, align 1
  br label %54

54:                                               ; preds = %50, %46
  br label %55

55:                                               ; preds = %54, %35
  br label %56

56:                                               ; preds = %55
  %57 = load i32, i32* %2, align 4
  %58 = add nsw i32 %57, 1
  store i32 %58, i32* %2, align 4
  br label %24

59:                                               ; preds = %24
  store i32 0, i32* %2, align 4
  br label %60

60:                                               ; preds = %96, %59
  %61 = load i32, i32* %2, align 4
  %62 = load i32, i32* %6, align 4
  %63 = icmp slt i32 %61, %62
  br i1 %63, label %64, label %99

64:                                               ; preds = %60
  %65 = load i32, i32* %2, align 4
  %66 = sext i32 %65 to i64
  %67 = getelementptr inbounds [200 x i8], [200 x i8]* %8, i64 0, i64 %66
  %68 = load i8, i8* %67, align 1
  %69 = sext i8 %68 to i32
  %70 = icmp eq i32 %69, 63
  br i1 %70, label %71, label %95

71:                                               ; preds = %64
  %72 = load i32, i32* %2, align 4
  store i32 %72, i32* %3, align 4
  br label %73

73:                                               ; preds = %91, %71
  %74 = load i32, i32* %3, align 4
  %75 = icmp sge i32 %74, 0
  br i1 %75, label %76, label %94

76:                                               ; preds = %73
  %77 = load i32, i32* %3, align 4
  %78 = sext i32 %77 to i64
  %79 = getelementptr inbounds [200 x i8], [200 x i8]* %8, i64 0, i64 %78
  %80 = load i8, i8* %79, align 1
  %81 = sext i8 %80 to i32
  %82 = icmp eq i32 %81, 36
  br i1 %82, label %83, label %90

83:                                               ; preds = %76
  %84 = load i32, i32* %3, align 4
  %85 = sext i32 %84 to i64
  %86 = getelementptr inbounds [200 x i8], [200 x i8]* %8, i64 0, i64 %85
  store i8 32, i8* %86, align 1
  %87 = load i32, i32* %2, align 4
  %88 = sext i32 %87 to i64
  %89 = getelementptr inbounds [200 x i8], [200 x i8]* %8, i64 0, i64 %88
  store i8 32, i8* %89, align 1
  br label %94

90:                                               ; preds = %76
  br label %91

91:                                               ; preds = %90
  %92 = load i32, i32* %3, align 4
  %93 = add nsw i32 %92, -1
  store i32 %93, i32* %3, align 4
  br label %73

94:                                               ; preds = %83, %73
  br label %95

95:                                               ; preds = %94, %64
  br label %96

96:                                               ; preds = %95
  %97 = load i32, i32* %2, align 4
  %98 = add nsw i32 %97, 1
  store i32 %98, i32* %2, align 4
  br label %60

99:                                               ; preds = %60
  %100 = getelementptr inbounds [200 x i8], [200 x i8]* %7, i64 0, i64 0
  %101 = call i32 @puts(i8* %100)
  %102 = getelementptr inbounds [200 x i8], [200 x i8]* %8, i64 0, i64 0
  %103 = call i32 @puts(i8* %102)
  store i32 0, i32* %2, align 4
  br label %104

104:                                              ; preds = %112, %99
  %105 = load i32, i32* %2, align 4
  %106 = load i32, i32* %6, align 4
  %107 = icmp slt i32 %105, %106
  br i1 %107, label %108, label %115

108:                                              ; preds = %104
  %109 = load i32, i32* %2, align 4
  %110 = sext i32 %109 to i64
  %111 = getelementptr inbounds [200 x i8], [200 x i8]* %8, i64 0, i64 %110
  store i8 0, i8* %111, align 1
  br label %112

112:                                              ; preds = %108
  %113 = load i32, i32* %2, align 4
  %114 = add nsw i32 %113, 1
  store i32 %114, i32* %2, align 4
  br label %104

115:                                              ; preds = %104
  br label %116

116:                                              ; preds = %115
  %117 = load i32, i32* %4, align 4
  %118 = add nsw i32 %117, 1
  store i32 %118, i32* %4, align 4
  br label %14

119:                                              ; preds = %14
  ret i32 0
}

; Function Attrs: argmemonly nounwind willreturn
declare void @llvm.memset.p0i8.i64(i8* nocapture writeonly, i8, i64, i1 immarg) #1

declare dso_local i32 @__isoc99_scanf(i8*, ...) #2

declare dso_local i32 @gets(...) #2

; Function Attrs: nounwind readonly
declare dso_local i64 @strlen(i8*) #3

declare dso_local i32 @puts(i8*) #2


!llvm.module.flags = !{!0}
!llvm.ident = !{!1}

!0 = !{i32 1, !"wchar_size", i32 4}
!1 = !{!"clang version 10.0.0-4ubuntu1 "}
